; Function Attrs: mustprogress uwtable
define dso_local void @_ZNK4absl5Mutex16AssertReaderHeldEv(ptr noundef nonnull align 8 dereferenceable(8) %0) local_unnamed_addr #0 align 2 {
  %2 = load atomic i64, ptr %0 monotonic, align 8
  %3 = and i64 %2, 9
  %4 = icmp eq i64 %3, 0
  br i1 %4, label %5, label %10

5:                                                ; preds = %1
  %6 = tail call fastcc noundef ptr @_ZN4abslL13GetSynchEventEPKv(ptr noundef %0)
  %7 = icmp eq ptr %6, null
  %8 = getelementptr inbounds nuw i8, ptr %6, i64 41
  %9 = select i1 %7, ptr @.str.35, ptr %8
  tail call void (i32, ptr, i32, ptr, ...) @_ZN4absl16raw_log_internal6RawLogENS_11LogSeverityEPKciS3_z(i32 noundef 3, ptr noundef nonnull getelementptr inbounds nuw (i8, ptr @.str, i64 120), i32 noundef 2509, ptr noundef nonnull @.str.36, ptr noundef nonnull %0, ptr noundef nonnull %9)
  unreachable

10:                                               ; preds = %1
  ret void
}